; Function Attrs: mustprogress nofree norecurse nosync nounwind willreturn memory(argmem: write) uwtable
define void @_ZN6google8protobuf16EnumValueOptionsC2EPNS0_5ArenaE(ptr nocapture noundef nonnull writeonly align 8 dereferenceable(88) %this, ptr noundef %arena) unnamed_addr #5 align 2 personality ptr @__gxx_personality_v0 {
invoke.cont:
  %_internal_metadata_.i.i = getelementptr inbounds i8, ptr %this, i64 8
  %0 = ptrtoint ptr %arena to i64
  store i64 %0, ptr %_internal_metadata_.i.i, align 8
  store ptr getelementptr inbounds ({ [13 x ptr] }, ptr @_ZTVN6google8protobuf16EnumValueOptionsE, i64 0, i32 0, i64 2), ptr %this, align 8
  %1 = getelementptr inbounds i8, ptr %this, i64 16
  store ptr %arena, ptr %1, align 8
  %flat_capacity_.i.i.i = getelementptr inbounds i8, ptr %this, i64 24
  store i16 0, ptr %flat_capacity_.i.i.i, align 8
  %flat_size_.i.i.i = getelementptr inbounds i8, ptr %this, i64 26
  store i16 0, ptr %flat_size_.i.i.i, align 2
  %map_.i.i.i = getelementptr inbounds i8, ptr %this, i64 32
  %arena_.i.i.i.i = getelementptr inbounds i8, ptr %this, i64 64
  tail call void @llvm.memset.p0.i64(ptr noundef nonnull align 8 dereferenceable(32) %map_.i.i.i, i8 0, i64 32, i1 false)
  store ptr %arena, ptr %arena_.i.i.i.i, align 8
  %add.ptr.i = getelementptr inbounds i8, ptr %this, i64 72
  tail call void @llvm.memset.p0.i64(ptr noundef nonnull align 8 dereferenceable(10) %add.ptr.i, i8 0, i64 10, i1 false)
  ret void
}